; Function Attrs: nounwind uwtable
define void @Wlc_ObjAddFanins(ptr noundef readonly captures(none) %0, ptr noundef captures(none) initializes((4, 8)) %1, ptr noundef readonly captures(none) %2) local_unnamed_addr #3 {
  %4 = getelementptr i8, ptr %2, i64 4
  %.val15 = load i32, ptr %4, align 4
  %.val15.fr = freeze i32 %.val15
  %5 = getelementptr inbounds nuw i8, ptr %1, i64 4
  store i32 %.val15.fr, ptr %5, align 4
  %6 = load i16, ptr %1, align 8
  %7 = and i16 %6, 63
  switch i16 %7, label %8 [
    i16 6, label %.thread.thread
    i16 22, label %.thread.thread18
    i16 53, label %.thread.thread18
  ]

.thread.thread:                                   ; preds = %3
  store i32 0, ptr %5, align 4
  br label %10

.thread.thread18:                                 ; preds = %3, %3
  store i32 1, ptr %5, align 4
  %.not.old = icmp eq i16 %7, 22
  br i1 %.not.old, label %10, label %.thread

8:                                                ; preds = %3
  %9 = icmp ugt i32 %.val15.fr, 2
  br i1 %9, label %10, label %switch.early.test

switch.early.test:                                ; preds = %8
  switch i16 %7, label %.thread [
    i16 22, label %10
    i16 6, label %10
  ]

10:                                               ; preds = %.thread.thread18, %.thread.thread, %8, %switch.early.test, %switch.early.test
  %11 = getelementptr inbounds nuw i8, ptr %0, i64 656
  %12 = load ptr, ptr %11, align 8
  %.val14 = load i32, ptr %4, align 4
  %13 = shl i32 %.val14, 2
  %14 = tail call ptr @Mem_FlexEntryFetch(ptr noundef %12, i32 noundef %13) #25
  %15 = getelementptr inbounds nuw i8, ptr %1, i64 16
  store ptr %14, ptr %15, align 8
  %.pre = load i32, ptr %5, align 4
  %16 = icmp ugt i32 %.pre, 2
  br i1 %16, label %Wlc_ObjHasArray.exit.thread.i, label %.thread

.thread:                                          ; preds = %.thread.thread18, %switch.early.test, %10
  %17 = load i16, ptr %1, align 8
  %18 = and i16 %17, 63
  switch i16 %18, label %21 [
    i16 6, label %Wlc_ObjHasArray.exit.thread.i
    i16 22, label %Wlc_ObjHasArray.exit.thread.i
  ]

Wlc_ObjHasArray.exit.thread.i:                    ; preds = %.thread, %.thread, %10
  %19 = getelementptr inbounds nuw i8, ptr %1, i64 16
  %20 = load ptr, ptr %19, align 8
  br label %Wlc_ObjFanins.exit

21:                                               ; preds = %.thread
  %22 = getelementptr inbounds nuw i8, ptr %1, i64 16
  br label %Wlc_ObjFanins.exit

Wlc_ObjFanins.exit:                               ; preds = %Wlc_ObjHasArray.exit.thread.i, %21
  %23 = phi ptr [ %20, %Wlc_ObjHasArray.exit.thread.i ], [ %22, %21 ]
  %24 = getelementptr i8, ptr %2, i64 8
  %.val16 = load ptr, ptr %24, align 8
  %.val = load i32, ptr %4, align 4
  %25 = sext i32 %.val to i64
  %26 = shl nsw i64 %25, 2
  tail call void @llvm.memcpy.p0.p0.i64(ptr align 4 %23, ptr align 4 %.val16, i64 %26, i1 false)
  ret void
}